target datalayout = "e-m:e-p270:32:32-p271:32:32-p272:64:64-i64:64-i128:128-f80:128-n8:16:32:64-S128"
target triple = "x86_64-unknown-linux-gnu"

%struct.AddressSpace = type { %struct.rcu_head, ptr, ptr, ptr, i32, i32, ptr, %union.anon.0, %union.anon.1 }
%struct.rcu_head = type { ptr, ptr }
%union.anon.0 = type { %struct.QTailQLink }
%struct.QTailQLink = type { ptr, ptr }
%union.anon.1 = type { %struct.QTailQLink }
%struct.SDHCIState = type { %union.anon, %struct.SDBus, %struct.MemoryRegion, %struct.AddressSpace, ptr, ptr, ptr, ptr, ptr, ptr, i32, i16, i16, i32, i16, i16, [4 x i32], i32, i8, i8, i8, i8, i16, i8, i8, i16, i16, i16, i16, i16, i16, i16, i16, i64, i16, i64, i64, i16, ptr, i32, i16, i8, i8, i8, i32, i8, i8, i8, i8 }
%union.anon = type { %struct.PCIDevice }
%struct.PCIDevice = type { %struct.DeviceState, i8, i8, ptr, ptr, ptr, ptr, ptr, i32, %struct.PCIReqIDCache, [64 x i8], [7 x %struct.PCIIORegion], %struct.AddressSpace, %struct.MemoryRegion, %struct.MemoryRegion, ptr, ptr, [3 x ptr], i8, i8, i32, i8, i32, ptr, ptr, ptr, ptr, ptr, ptr, %struct.MemoryRegion, %struct.MemoryRegion, %struct.MemoryRegion, ptr, i8, i32, i8, %struct.PCIExpressDevice, ptr, ptr, i32, i8, %struct.MemoryRegion, i32, ptr, ptr, ptr, ptr, ptr, i32 }
%struct.DeviceState = type { %struct.Object, ptr, ptr, i8, i8, i64, ptr, i32, i8, ptr, %struct.NamedGPIOListHead, %struct.NamedClockListHead, %struct.BusStateHead, i32, i32, i32, %struct.ResettableState, ptr, %struct.MemReentrancyGuard }
%struct.Object = type { ptr, ptr, ptr, i32, ptr }
%struct.NamedGPIOListHead = type { ptr }
%struct.NamedClockListHead = type { ptr }
%struct.BusStateHead = type { ptr }
%struct.ResettableState = type { i32, i8, i8 }
%struct.MemReentrancyGuard = type { i8 }
%struct.PCIReqIDCache = type { ptr, i32 }
%struct.PCIIORegion = type { i64, i64, i8, ptr, ptr }
%struct.PCIExpressDevice = type { i8, i8, i8, i16, %struct.PCIEAERLog, i16, i16, i16, %struct.PCIESriovPF, %struct.PCIESriovVF }
%struct.PCIEAERLog = type { i16, i16, ptr }
%struct.PCIESriovPF = type { i16, [7 x i8], ptr, ptr }
%struct.PCIESriovVF = type { ptr, i16 }
%struct.SDBus = type { %struct.BusState }
%struct.BusState = type { %struct.Object, ptr, ptr, ptr, i32, i8, i8, i32, %union.BusChildHead, %struct.BusStateEntry, %struct.ResettableState }
%union.BusChildHead = type { %struct.QTailQLink }
%struct.BusStateEntry = type { ptr, ptr }
%struct.MemoryRegion = type { %struct.Object, i8, i8, i8, i8, i8, i8, i8, i8, i8, i8, ptr, ptr, ptr, ptr, ptr, ptr, i32, i128, i64, ptr, i64, i8, i8, i8, i8, i8, ptr, i64, i32, %union.anon.2, %union.anon.3, %union.anon.4, ptr, i32, ptr, ptr, i8 }
%union.anon.2 = type { %struct.QTailQLink }
%union.anon.3 = type { %struct.QTailQLink }
%union.anon.4 = type { %struct.QTailQLink }
%struct.timeval = type { i64, i64 }

@trace_events_enabled_count = external global i32, align 4
@message_with_timestamp = external global i8, align 1
@qemu_loglevel = external global i32, align 4
@.str.84 = private unnamed_addr constant [7 x i8] c"insert\00", align 1
@.str.85 = private unnamed_addr constant [6 x i8] c"eject\00", align 1
@_TRACE_SDHCI_SET_INSERTED_DSTATE = external global i16, align 2
@.str.86 = private unnamed_addr constant [56 x i8] c"%d@%zu.%06zu:sdhci_set_inserted card state changed: %s\0A\00", align 1
@.str.87 = private unnamed_addr constant [43 x i8] c"sdhci_set_inserted card state changed: %s\0A\00", align 1

; Function Attrs: nounwind sspstrong uwtable
define internal zeroext i1 @qemu_loglevel_mask(i32 noundef %mask) #0 {
entry:
  %mask.addr = alloca i32, align 4
  store i32 %mask, ptr %mask.addr, align 4
  %0 = load i32, ptr @qemu_loglevel, align 4
  %1 = load i32, ptr %mask.addr, align 4
  %and = and i32 %0, %1
  %cmp = icmp ne i32 %and, 0
  ret i1 %cmp
}

; Function Attrs: nounwind sspstrong uwtable
define internal zeroext i8 @sdhci_slotint(ptr noundef %s) #0 {
entry:
  %s.addr = alloca ptr, align 8
  store ptr %s, ptr %s.addr, align 8
  %0 = load ptr, ptr %s.addr, align 8
  %norintsts = getelementptr inbounds %struct.SDHCIState, ptr %0, i32 0, i32 25
  %1 = load i16, ptr %norintsts, align 4
  %conv = zext i16 %1 to i32
  %2 = load ptr, ptr %s.addr, align 8
  %norintsigen = getelementptr inbounds %struct.SDHCIState, ptr %2, i32 0, i32 29
  %3 = load i16, ptr %norintsigen, align 4
  %conv1 = zext i16 %3 to i32
  %and = and i32 %conv, %conv1
  %tobool = icmp ne i32 %and, 0
  br i1 %tobool, label %lor.end, label %lor.lhs.false

lor.lhs.false:                                    ; preds = %entry
  %4 = load ptr, ptr %s.addr, align 8
  %errintsts = getelementptr inbounds %struct.SDHCIState, ptr %4, i32 0, i32 26
  %5 = load i16, ptr %errintsts, align 2
  %conv2 = zext i16 %5 to i32
  %6 = load ptr, ptr %s.addr, align 8
  %errintsigen = getelementptr inbounds %struct.SDHCIState, ptr %6, i32 0, i32 30
  %7 = load i16, ptr %errintsigen, align 2
  %conv3 = zext i16 %7 to i32
  %and4 = and i32 %conv2, %conv3
  %tobool5 = icmp ne i32 %and4, 0
  br i1 %tobool5, label %lor.end, label %lor.lhs.false6

lor.lhs.false6:                                   ; preds = %lor.lhs.false
  %8 = load ptr, ptr %s.addr, align 8
  %norintsts7 = getelementptr inbounds %struct.SDHCIState, ptr %8, i32 0, i32 25
  %9 = load i16, ptr %norintsts7, align 4
  %conv8 = zext i16 %9 to i32
  %and9 = and i32 %conv8, 64
  %tobool10 = icmp ne i32 %and9, 0
  br i1 %tobool10, label %land.lhs.true, label %lor.rhs

land.lhs.true:                                    ; preds = %lor.lhs.false6
  %10 = load ptr, ptr %s.addr, align 8
  %wakcon = getelementptr inbounds %struct.SDHCIState, ptr %10, i32 0, i32 21
  %11 = load i8, ptr %wakcon, align 1
  %conv11 = zext i8 %11 to i32
  %and12 = and i32 %conv11, 2
  %tobool13 = icmp ne i32 %and12, 0
  br i1 %tobool13, label %lor.end, label %lor.rhs

lor.rhs:                                          ; preds = %land.lhs.true, %lor.lhs.false6
  %12 = load ptr, ptr %s.addr, align 8
  %norintsts14 = getelementptr inbounds %struct.SDHCIState, ptr %12, i32 0, i32 25
  %13 = load i16, ptr %norintsts14, align 4
  %conv15 = zext i16 %13 to i32
  %and16 = and i32 %conv15, 128
  %tobool17 = icmp ne i32 %and16, 0
  br i1 %tobool17, label %land.rhs, label %land.end

land.rhs:                                         ; preds = %lor.rhs
  %14 = load ptr, ptr %s.addr, align 8
  %wakcon18 = getelementptr inbounds %struct.SDHCIState, ptr %14, i32 0, i32 21
  %15 = load i8, ptr %wakcon18, align 1
  %conv19 = zext i8 %15 to i32
  %and20 = and i32 %conv19, 4
  %tobool21 = icmp ne i32 %and20, 0
  br label %land.end

land.end:                                         ; preds = %land.rhs, %lor.rhs
  %16 = phi i1 [ false, %lor.rhs ], [ %tobool21, %land.rhs ]
  br label %lor.end

lor.end:                                          ; preds = %land.end, %land.lhs.true, %lor.lhs.false, %entry
  %17 = phi i1 [ true, %land.lhs.true ], [ true, %lor.lhs.false ], [ true, %entry ], [ %16, %land.end ]
  %lor.ext = zext i1 %17 to i32
  %conv22 = trunc i32 %lor.ext to i8
  ret i8 %conv22
}

; Function Attrs: nounwind sspstrong uwtable
define internal void @_nocheck__trace_sdhci_set_inserted(ptr noundef %level) #0 {
entry:
  %level.addr = alloca ptr, align 8
  %_now = alloca %struct.timeval, align 8
  store ptr %level, ptr %level.addr, align 8
  %0 = load i32, ptr @trace_events_enabled_count, align 4
  %tobool = icmp ne i32 %0, 0
  %lnot = xor i1 %tobool, true
  %lnot1 = xor i1 %lnot, true
  %lnot.ext = zext i1 %lnot1 to i32
  %conv = sext i32 %lnot.ext to i64
  %tobool2 = icmp ne i64 %conv, 0
  br i1 %tobool2, label %land.lhs.true, label %if.end11

land.lhs.true:                                    ; preds = %entry
  %1 = load i16, ptr @_TRACE_SDHCI_SET_INSERTED_DSTATE, align 2
  %conv3 = zext i16 %1 to i32
  %tobool4 = icmp ne i32 %conv3, 0
  br i1 %tobool4, label %land.lhs.true5, label %if.end11

land.lhs.true5:                                   ; preds = %land.lhs.true
  %call = call zeroext i1 @qemu_loglevel_mask(i32 noundef 32768)
  br i1 %call, label %if.then, label %if.end11

if.then:                                          ; preds = %land.lhs.true5
  %2 = load i8, ptr @message_with_timestamp, align 1
  %tobool7 = trunc i8 %2 to i1
  br i1 %tobool7, label %if.then8, label %if.else

if.then8:                                         ; preds = %if.then
  %call9 = call i32 @gettimeofday(ptr noundef %_now, ptr noundef null) #11
  %call10 = call i32 @qemu_get_thread_id()
  %tv_sec = getelementptr inbounds %struct.timeval, ptr %_now, i32 0, i32 0
  %3 = load i64, ptr %tv_sec, align 8
  %tv_usec = getelementptr inbounds %struct.timeval, ptr %_now, i32 0, i32 1
  %4 = load i64, ptr %tv_usec, align 8
  %5 = load ptr, ptr %level.addr, align 8
  call void (ptr, ...) @qemu_log(ptr noundef @.str.86, i32 noundef %call10, i64 noundef %3, i64 noundef %4, ptr noundef %5)
  br label %if.end

if.else:                                          ; preds = %if.then
  %6 = load ptr, ptr %level.addr, align 8
  call void (ptr, ...) @qemu_log(ptr noundef @.str.87, ptr noundef %6)
  br label %if.end

if.end:                                           ; preds = %if.else, %if.then8
  br label %if.end11

if.end11:                                         ; preds = %if.end, %land.lhs.true5, %land.lhs.true, %entry
  ret void
}

; Function Attrs: nounwind sspstrong uwtable
define internal zeroext i1 @sdhci_update_irq(ptr noundef %s) #0 {
entry:
  %s.addr = alloca ptr, align 8
  %pending = alloca i8, align 1
  store ptr %s, ptr %s.addr, align 8
  %0 = load ptr, ptr %s.addr, align 8
  %call = call zeroext i8 @sdhci_slotint(ptr noundef %0)
  %tobool = icmp ne i8 %call, 0
  %frombool = zext i1 %tobool to i8
  store i8 %frombool, ptr %pending, align 1
  %1 = load ptr, ptr %s.addr, align 8
  %irq = getelementptr inbounds %struct.SDHCIState, ptr %1, i32 0, i32 9
  %2 = load ptr, ptr %irq, align 16
  %3 = load i8, ptr %pending, align 1
  %tobool1 = trunc i8 %3 to i1
  %conv = zext i1 %tobool1 to i32
  call void @qemu_set_irq(ptr noundef %2, i32 noundef %conv)
  %4 = load i8, ptr %pending, align 1
  %tobool2 = trunc i8 %4 to i1
  ret i1 %tobool2
}

; Function Attrs: nounwind sspstrong uwtable
define internal void @trace_sdhci_set_inserted(ptr noundef %level) #0 {
entry:
  %level.addr = alloca ptr, align 8
  store ptr %level, ptr %level.addr, align 8
  %0 = load ptr, ptr %level.addr, align 8
  call void @_nocheck__trace_sdhci_set_inserted(ptr noundef %0)
  ret void
}

; Function Attrs: nounwind sspstrong uwtable
define internal void @sdhci_set_inserted(ptr noundef %dev, i1 noundef zeroext %level) #0 {
entry:
  %dev.addr = alloca ptr, align 8
  %level.addr = alloca i8, align 1
  %s = alloca ptr, align 8
  store ptr %dev, ptr %dev.addr, align 8
  %frombool = zext i1 %level to i8
  store i8 %frombool, ptr %level.addr, align 1
  %0 = load ptr, ptr %dev.addr, align 8
  store ptr %0, ptr %s, align 8
  %1 = load i8, ptr %level.addr, align 1
  %tobool = trunc i8 %1 to i1
  %cond = select i1 %tobool, ptr @.str.84, ptr @.str.85
  call void @trace_sdhci_set_inserted(ptr noundef %cond)
  %2 = load ptr, ptr %s, align 8
  %norintsts = getelementptr inbounds %struct.SDHCIState, ptr %2, i32 0, i32 25
  %3 = load i16, ptr %norintsts, align 4
  %conv = zext i16 %3 to i32
  %and = and i32 %conv, 128
  %tobool1 = icmp ne i32 %and, 0
  br i1 %tobool1, label %land.lhs.true, label %if.else

land.lhs.true:                                    ; preds = %entry
  %4 = load i8, ptr %level.addr, align 1
  %tobool2 = trunc i8 %4 to i1
  br i1 %tobool2, label %if.then, label %if.else

if.then:                                          ; preds = %land.lhs.true
  %5 = load ptr, ptr %s, align 8
  %insert_timer = getelementptr inbounds %struct.SDHCIState, ptr %5, i32 0, i32 7
  %6 = load ptr, ptr %insert_timer, align 16
  %call = call i64 @qemu_clock_get_ns(i32 noundef 1)
  %add = add i64 %call, 1000000000
  call void @timer_mod(ptr noundef %6, i64 noundef %add)
  br label %if.end33

if.else:                                          ; preds = %land.lhs.true, %entry
  %7 = load i8, ptr %level.addr, align 1
  %tobool4 = trunc i8 %7 to i1
  br i1 %tobool4, label %if.then5, label %if.else13

if.then5:                                         ; preds = %if.else
  %8 = load ptr, ptr %s, align 8
  %prnsts = getelementptr inbounds %struct.SDHCIState, ptr %8, i32 0, i32 17
  store i32 33488896, ptr %prnsts, align 8
  %9 = load ptr, ptr %s, align 8
  %norintstsen = getelementptr inbounds %struct.SDHCIState, ptr %9, i32 0, i32 27
  %10 = load i16, ptr %norintstsen, align 8
  %conv6 = zext i16 %10 to i32
  %and7 = and i32 %conv6, 64
  %tobool8 = icmp ne i32 %and7, 0
  br i1 %tobool8, label %if.then9, label %if.end

if.then9:                                         ; preds = %if.then5
  %11 = load ptr, ptr %s, align 8
  %norintsts10 = getelementptr inbounds %struct.SDHCIState, ptr %11, i32 0, i32 25
  %12 = load i16, ptr %norintsts10, align 4
  %conv11 = zext i16 %12 to i32
  %or = or i32 %conv11, 64
  %conv12 = trunc i32 %or to i16
  store i16 %conv12, ptr %norintsts10, align 4
  br label %if.end

if.end:                                           ; preds = %if.then9, %if.then5
  br label %if.end31

if.else13:                                        ; preds = %if.else
  %13 = load ptr, ptr %s, align 8
  %prnsts14 = getelementptr inbounds %struct.SDHCIState, ptr %13, i32 0, i32 17
  store i32 33161216, ptr %prnsts14, align 8
  %14 = load ptr, ptr %s, align 8
  %pwrcon = getelementptr inbounds %struct.SDHCIState, ptr %14, i32 0, i32 19
  %15 = load i8, ptr %pwrcon, align 1
  %conv15 = zext i8 %15 to i32
  %and16 = and i32 %conv15, -2
  %conv17 = trunc i32 %and16 to i8
  store i8 %conv17, ptr %pwrcon, align 1
  %16 = load ptr, ptr %s, align 8
  %clkcon = getelementptr inbounds %struct.SDHCIState, ptr %16, i32 0, i32 22
  %17 = load i16, ptr %clkcon, align 16
  %conv18 = zext i16 %17 to i32
  %and19 = and i32 %conv18, -5
  %conv20 = trunc i32 %and19 to i16
  store i16 %conv20, ptr %clkcon, align 16
  %18 = load ptr, ptr %s, align 8
  %norintstsen21 = getelementptr inbounds %struct.SDHCIState, ptr %18, i32 0, i32 27
  %19 = load i16, ptr %norintstsen21, align 8
  %conv22 = zext i16 %19 to i32
  %and23 = and i32 %conv22, 128
  %tobool24 = icmp ne i32 %and23, 0
  br i1 %tobool24, label %if.then25, label %if.end30

if.then25:                                        ; preds = %if.else13
  %20 = load ptr, ptr %s, align 8
  %norintsts26 = getelementptr inbounds %struct.SDHCIState, ptr %20, i32 0, i32 25
  %21 = load i16, ptr %norintsts26, align 4
  %conv27 = zext i16 %21 to i32
  %or28 = or i32 %conv27, 128
  %conv29 = trunc i32 %or28 to i16
  store i16 %conv29, ptr %norintsts26, align 4
  br label %if.end30

if.end30:                                         ; preds = %if.then25, %if.else13
  br label %if.end31

if.end31:                                         ; preds = %if.end30, %if.end
  %22 = load ptr, ptr %s, align 8
  %call32 = call zeroext i1 @sdhci_update_irq(ptr noundef %22)
  br label %if.end33

if.end33:                                         ; preds = %if.end31, %if.then
  ret void
}