; Function Attrs: nounwind sspstrong uwtable
define internal void @sdhci_set_inserted(ptr noundef captures(none) %dev, i1 noundef zeroext %level) #0 {
entry:
  %_now.i.i = alloca %struct.timeval, align 8
  %cond = select i1 %level, ptr @.str.84, ptr @.str.85
  call void @llvm.lifetime.start.p0(i64 16, ptr nonnull %_now.i.i)
  %0 = load i32, ptr @trace_events_enabled_count, align 4
  %tobool.i.i = icmp ne i32 %0, 0
  %1 = load i16, ptr @_TRACE_SDHCI_SET_INSERTED_DSTATE, align 2
  %tobool4.i.i = icmp ne i16 %1, 0
  %or.cond.i.i = select i1 %tobool.i.i, i1 %tobool4.i.i, i1 false
  br i1 %or.cond.i.i, label %land.lhs.true5.i.i, label %trace_sdhci_set_inserted.exit

land.lhs.true5.i.i:                               ; preds = %entry
  %2 = load i32, ptr @qemu_loglevel, align 4
  %and.i.i.i = and i32 %2, 32768
  %cmp.i.not.i.i = icmp eq i32 %and.i.i.i, 0
  br i1 %cmp.i.not.i.i, label %trace_sdhci_set_inserted.exit, label %if.then.i.i

if.then.i.i:                                      ; preds = %land.lhs.true5.i.i
  %3 = load i8, ptr @message_with_timestamp, align 1
  %tobool7.i.i = trunc i8 %3 to i1
  br i1 %tobool7.i.i, label %if.then8.i.i, label %if.else.i.i

if.then8.i.i:                                     ; preds = %if.then.i.i
  %call9.i.i = call i32 @gettimeofday(ptr noundef nonnull %_now.i.i, ptr noundef null) #12
  %call10.i.i = tail call i32 @qemu_get_thread_id() #12
  %4 = load i64, ptr %_now.i.i, align 8
  %tv_usec.i.i = getelementptr inbounds nuw i8, ptr %_now.i.i, i64 8
  %5 = load i64, ptr %tv_usec.i.i, align 8
  tail call void (ptr, ...) @qemu_log(ptr noundef nonnull @.str.86, i32 noundef %call10.i.i, i64 noundef %4, i64 noundef %5, ptr noundef nonnull %cond) #12
  br label %trace_sdhci_set_inserted.exit

if.else.i.i:                                      ; preds = %if.then.i.i
  tail call void (ptr, ...) @qemu_log(ptr noundef nonnull @.str.87, ptr noundef nonnull %cond) #12
  br label %trace_sdhci_set_inserted.exit

trace_sdhci_set_inserted.exit:                    ; preds = %entry, %land.lhs.true5.i.i, %if.then8.i.i, %if.else.i.i
  call void @llvm.lifetime.end.p0(i64 16, ptr nonnull %_now.i.i)
  %norintsts = getelementptr inbounds nuw i8, ptr %dev, i64 3188
  %6 = load i16, ptr %norintsts, align 4
  %7 = and i16 %6, 128
  %tobool1.not = icmp ne i16 %7, 0
  %brmerge.not = and i1 %level, %tobool1.not
  br i1 %brmerge.not, label %if.then, label %if.else

if.then:                                          ; preds = %trace_sdhci_set_inserted.exit
  %insert_timer = getelementptr inbounds nuw i8, ptr %dev, i64 3120
  %8 = load ptr, ptr %insert_timer, align 16
  %call = tail call i64 @qemu_clock_get_ns(i32 noundef 1) #12
  %add = add i64 %call, 1000000000
  tail call void @timer_mod(ptr noundef %8, i64 noundef %add) #12
  br label %if.end33

if.else:                                          ; preds = %trace_sdhci_set_inserted.exit
  %prnsts = getelementptr inbounds nuw i8, ptr %dev, i64 3176
  br i1 %level, label %if.then5, label %if.else13

if.then5:                                         ; preds = %if.else
  store i32 33488896, ptr %prnsts, align 8
  %norintstsen = getelementptr inbounds nuw i8, ptr %dev, i64 3192
  %9 = load i16, ptr %norintstsen, align 8
  %10 = and i16 %9, 64
  %tobool8.not = icmp eq i16 %10, 0
  br i1 %tobool8.not, label %if.end31, label %if.end31.sink.split

if.else13:                                        ; preds = %if.else
  store i32 33161216, ptr %prnsts, align 8
  %pwrcon = getelementptr inbounds nuw i8, ptr %dev, i64 3181
  %11 = load i8, ptr %pwrcon, align 1
  %12 = and i8 %11, -2
  store i8 %12, ptr %pwrcon, align 1
  %clkcon = getelementptr inbounds nuw i8, ptr %dev, i64 3184
  %13 = load i16, ptr %clkcon, align 16
  %14 = and i16 %13, -5
  store i16 %14, ptr %clkcon, align 16
  %norintstsen21 = getelementptr inbounds nuw i8, ptr %dev, i64 3192
  %15 = load i16, ptr %norintstsen21, align 8
  %16 = and i16 %15, 128
  %tobool24.not = icmp eq i16 %16, 0
  br i1 %tobool24.not, label %if.end31, label %if.end31.sink.split

if.end31.sink.split:                              ; preds = %if.else13, %if.then5
  %.sink13 = phi i16 [ 64, %if.then5 ], [ 128, %if.else13 ]
  %17 = or i16 %6, %.sink13
  store i16 %17, ptr %norintsts, align 4
  br label %if.end31

if.end31:                                         ; preds = %if.end31.sink.split, %if.else13, %if.then5
  %18 = phi i16 [ %6, %if.else13 ], [ %6, %if.then5 ], [ %17, %if.end31.sink.split ]
  %norintsigen.i.i = getelementptr inbounds nuw i8, ptr %dev, i64 3196
  %19 = load i16, ptr %norintsigen.i.i, align 4
  %and8.i.i = and i16 %19, %18
  %tobool.not.i.i = icmp eq i16 %and8.i.i, 0
  br i1 %tobool.not.i.i, label %lor.lhs.false.i.i, label %sdhci_update_irq.exit

lor.lhs.false.i.i:                                ; preds = %if.end31
  %errintsts.i.i = getelementptr inbounds nuw i8, ptr %dev, i64 3190
  %20 = load i16, ptr %errintsts.i.i, align 2
  %errintsigen.i.i = getelementptr inbounds nuw i8, ptr %dev, i64 3198
  %21 = load i16, ptr %errintsigen.i.i, align 2
  %and49.i.i = and i16 %21, %20
  %tobool5.not.i.i = icmp eq i16 %and49.i.i, 0
  br i1 %tobool5.not.i.i, label %lor.lhs.false6.i.i, label %sdhci_update_irq.exit

lor.lhs.false6.i.i:                               ; preds = %lor.lhs.false.i.i
  %22 = and i16 %18, 64
  %tobool10.not.i.i = icmp eq i16 %22, 0
  br i1 %tobool10.not.i.i, label %lor.rhs.i.i, label %land.lhs.true.i.i

land.lhs.true.i.i:                                ; preds = %lor.lhs.false6.i.i
  %wakcon.i.i = getelementptr inbounds nuw i8, ptr %dev, i64 3183
  %23 = load i8, ptr %wakcon.i.i, align 1
  %24 = and i8 %23, 2
  %tobool13.not.i.i = icmp eq i8 %24, 0
  br i1 %tobool13.not.i.i, label %lor.rhs.i.i, label %sdhci_update_irq.exit

lor.rhs.i.i:                                      ; preds = %land.lhs.true.i.i, %lor.lhs.false6.i.i
  %25 = and i16 %18, 128
  %tobool17.not.i.i = icmp eq i16 %25, 0
  br i1 %tobool17.not.i.i, label %sdhci_update_irq.exit, label %land.rhs.i.i

land.rhs.i.i:                                     ; preds = %lor.rhs.i.i
  %wakcon18.i.i = getelementptr inbounds nuw i8, ptr %dev, i64 3183
  %26 = load i8, ptr %wakcon18.i.i, align 1
  %27 = lshr i8 %26, 2
  %.lobit.i.i = and i8 %27, 1
  %28 = zext nneg i8 %.lobit.i.i to i32
  br label %sdhci_update_irq.exit

sdhci_update_irq.exit:                            ; preds = %if.end31, %lor.lhs.false.i.i, %land.lhs.true.i.i, %lor.rhs.i.i, %land.rhs.i.i
  %conv22.i.i = phi i32 [ 1, %land.lhs.true.i.i ], [ 1, %lor.lhs.false.i.i ], [ 1, %if.end31 ], [ 0, %lor.rhs.i.i ], [ %28, %land.rhs.i.i ]
  %irq.i = getelementptr inbounds nuw i8, ptr %dev, i64 3136
  %29 = load ptr, ptr %irq.i, align 16
  tail call void @qemu_set_irq(ptr noundef %29, i32 noundef %conv22.i.i) #12
  br label %if.end33

if.end33:                                         ; preds = %sdhci_update_irq.exit, %if.then
  ret void
}